target datalayout = "e-m:e-p270:32:32-p271:32:32-p272:64:64-i64:64-i128:128-f80:128-n8:16:32:64-S128"
target triple = "x86_64-unknown-linux-gnu"

module asm ".section\09\22.initcall5.init\22, \22a\22\09\09"
module asm "__initcall__kmod_proc__289_37_proc_softirqs_init5:\09\09\09"
module asm ".long\09proc_softirqs_init - .\09"
module asm ".previous\09\09\09\09\09"

%struct.cpumask = type { [1 x i64] }
%struct.kernel_stat = type { i64, [10 x i32] }

@__UNIQUE_ID___addressable_proc_softirqs_init290 = internal global ptr @proc_softirqs_init, section ".discard.addressable", align 8
@.str = private unnamed_addr constant [9 x i8] c"softirqs\00", align 1
@.str.1 = private unnamed_addr constant [21 x i8] c"                    \00", align 1
@__cpu_possible_mask = external dso_local local_unnamed_addr global %struct.cpumask, align 8
@.str.2 = private unnamed_addr constant [8 x i8] c"CPU%-8d\00", align 1
@.str.3 = private unnamed_addr constant [6 x i8] c"%12s:\00", align 1
@softirq_to_name = external dso_local local_unnamed_addr constant [10 x ptr], align 16
@.str.4 = private unnamed_addr constant [6 x i8] c" %10u\00", align 1
@kstat = external dso_local global %struct.kernel_stat, section ".data..percpu", align 8
@__per_cpu_offset = external dso_local local_unnamed_addr global [64 x i64], align 16
@llvm.compiler.used = appending global [1 x ptr] [ptr @__UNIQUE_ID___addressable_proc_softirqs_init290], section "llvm.metadata"

; Function Attrs: cold fn_ret_thunk_extern nounwind null_pointer_is_valid optsize
define internal noundef i32 @proc_softirqs_init() #0 section ".init.text" align 16 {
  %1 = tail call ptr @proc_create_single_data(ptr noundef nonnull @.str, i16 noundef zeroext 0, ptr noundef null, ptr noundef nonnull @show_softirqs, ptr noundef null) #3
  %2 = getelementptr inbounds i8, ptr %1, i64 170
  %3 = load i8, ptr %2, align 2
  %4 = or i8 %3, 1
  store i8 %4, ptr %2, align 2
  ret i32 0
}

; Function Attrs: null_pointer_is_valid
declare dso_local ptr @proc_create_single_data(ptr noundef, i16 noundef zeroext, ptr noundef, ptr noundef, ptr noundef) local_unnamed_addr #1

; Function Attrs: fn_ret_thunk_extern nounwind null_pointer_is_valid
define internal noundef i32 @show_softirqs(ptr noundef %0, ptr nocapture readnone %1) #2 align 16 {
  tail call void @seq_puts(ptr noundef %0, ptr noundef nonnull @.str.1) #3
  br label %3

3:                                                ; preds = %18, %2
  %4 = phi i64 [ 0, %2 ], [ %19, %18 ]
  %5 = and i64 %4, 4294967295
  %6 = icmp ugt i64 %5, 63
  br i1 %6, label %14, label %7, !prof !5

7:                                                ; preds = %3
  %8 = load i64, ptr @__cpu_possible_mask, align 8
  %9 = shl nsw i64 -1, %5
  %10 = and i64 %8, %9
  %11 = icmp eq i64 %10, 0
  br i1 %11, label %14, label %12

12:                                               ; preds = %7
  %13 = tail call i64 asm "rep; bsf $1,$0", "=r,rm,~{dirflag},~{fpsr},~{flags}"(i64 %10) #4, !srcloc !6
  br label %14

14:                                               ; preds = %12, %7, %3
  %15 = phi i64 [ 64, %3 ], [ %13, %12 ], [ 64, %7 ]
  %16 = trunc i64 %15 to i32
  %17 = icmp ult i32 %16, 64
  br i1 %17, label %18, label %20

18:                                               ; preds = %14
  tail call void (ptr, ptr, ...) @seq_printf(ptr noundef %0, ptr noundef nonnull @.str.2, i32 noundef %16) #3
  %19 = add i64 %15, 1
  br label %3, !llvm.loop !7

20:                                               ; preds = %14
  tail call void @seq_putc(ptr noundef %0, i8 noundef zeroext 10) #3
  br label %21

21:                                               ; preds = %50, %20
  %22 = phi i64 [ 0, %20 ], [ %51, %50 ]
  %23 = getelementptr [10 x ptr], ptr @softirq_to_name, i64 0, i64 %22
  %24 = load ptr, ptr %23, align 8
  tail call void (ptr, ptr, ...) @seq_printf(ptr noundef %0, ptr noundef nonnull @.str.3, ptr noundef %24) #3
  br label %25

25:                                               ; preds = %40, %21
  %26 = phi i64 [ 0, %21 ], [ %49, %40 ]
  %27 = and i64 %26, 4294967295
  %28 = icmp ugt i64 %27, 63
  br i1 %28, label %36, label %29, !prof !5

29:                                               ; preds = %25
  %30 = load i64, ptr @__cpu_possible_mask, align 8
  %31 = shl nsw i64 -1, %27
  %32 = and i64 %30, %31
  %33 = icmp eq i64 %32, 0
  br i1 %33, label %36, label %34

34:                                               ; preds = %29
  %35 = tail call i64 asm "rep; bsf $1,$0", "=r,rm,~{dirflag},~{fpsr},~{flags}"(i64 %32) #4, !srcloc !6
  br label %36

36:                                               ; preds = %34, %29, %25
  %37 = phi i64 [ 64, %25 ], [ %35, %34 ], [ 64, %29 ]
  %38 = and i64 %37, 4294967232
  %39 = icmp eq i64 %38, 0
  br i1 %39, label %40, label %50

40:                                               ; preds = %36
  %41 = and i64 %37, 63
  %42 = getelementptr [64 x i64], ptr @__per_cpu_offset, i64 0, i64 %41
  %43 = load i64, ptr %42, align 8
  %44 = add i64 %43, ptrtoint (ptr @kstat to i64)
  %45 = inttoptr i64 %44 to ptr
  %46 = getelementptr inbounds i8, ptr %45, i64 8
  %47 = getelementptr [10 x i32], ptr %46, i64 0, i64 %22
  %48 = load i32, ptr %47, align 4
  tail call void (ptr, ptr, ...) @seq_printf(ptr noundef %0, ptr noundef nonnull @.str.4, i32 noundef %48) #3
  %49 = add nuw nsw i64 %37, 1
  br label %25, !llvm.loop !10

50:                                               ; preds = %36
  tail call void @seq_putc(ptr noundef %0, i8 noundef zeroext 10) #3
  %51 = add nuw nsw i64 %22, 1
  %52 = icmp eq i64 %51, 10
  br i1 %52, label %53, label %21, !llvm.loop !11

53:                                               ; preds = %50
  ret i32 0
}

; Function Attrs: null_pointer_is_valid
declare dso_local void @seq_puts(ptr noundef, ptr noundef) local_unnamed_addr #1

; Function Attrs: null_pointer_is_valid
declare dso_local void @seq_printf(ptr noundef, ptr noundef, ...) local_unnamed_addr #1

; Function Attrs: null_pointer_is_valid
declare dso_local void @seq_putc(ptr noundef, i8 noundef zeroext) local_unnamed_addr #1


!llvm.module.flags = !{!0, !1, !2, !3, !4}

!0 = !{i32 1, !"wchar_size", i32 2}
!1 = !{i32 8, !"cf-protection-branch", i32 1}
!2 = !{i32 4, !"function_return_thunk_extern", i32 1}
!3 = !{i32 4, !"indirect_branch_cs_prefix", i32 1}
!4 = !{i32 4, !"SkipRaxSetup", i32 1}
!5 = !{!"branch_weights", i32 1, i32 2000}
!6 = !{i64 469774}
!7 = distinct !{!7, !8, !9}
!8 = !{!"llvm.loop.mustprogress"}
!9 = !{!"llvm.loop.unroll.disable"}
!10 = distinct !{!10, !8, !9}
!11 = distinct !{!11, !8, !9}
